target datalayout = "e-m:e-p270:32:32-p271:32:32-p272:64:64-i64:64-i128:128-f80:128-n8:16:32:64-S128"
target triple = "x86_64-pc-linux-gnu"

%struct.Vec_Int_t_ = type { i32, i32, ptr }
%struct.Vec_Str_t_ = type { i32, i32, ptr }

@.str.61 = private unnamed_addr constant [5 x i8] c" %8d\00", align 1

; Function Attrs: inlinehint nounwind uwtable
define internal i32 @Vec_IntEntry(ptr noundef %0, i32 noundef %1) #4 {
  %3 = alloca ptr, align 8
  %4 = alloca i32, align 4
  store ptr %0, ptr %3, align 8, !tbaa !73
  store i32 %1, ptr %4, align 4, !tbaa !10
  %5 = load ptr, ptr %3, align 8, !tbaa !73
  %6 = getelementptr inbounds nuw %struct.Vec_Int_t_, ptr %5, i32 0, i32 2
  %7 = load ptr, ptr %6, align 8, !tbaa !97
  %8 = load i32, ptr %4, align 4, !tbaa !10
  %9 = sext i32 %8 to i64
  %10 = getelementptr inbounds i32, ptr %7, i64 %9
  %11 = load i32, ptr %10, align 4, !tbaa !10
  ret i32 %11
}

; Function Attrs: inlinehint nounwind uwtable
define internal void @Vec_StrFree(ptr noundef %0) #4 {
  %2 = alloca ptr, align 8
  store ptr %0, ptr %2, align 8, !tbaa !8
  %3 = load ptr, ptr %2, align 8, !tbaa !8
  %4 = getelementptr inbounds nuw %struct.Vec_Str_t_, ptr %3, i32 0, i32 2
  %5 = load ptr, ptr %4, align 8, !tbaa !40
  %6 = icmp ne ptr %5, null
  br i1 %6, label %7, label %13

7:                                                ; preds = %1
  %8 = load ptr, ptr %2, align 8, !tbaa !8
  %9 = getelementptr inbounds nuw %struct.Vec_Str_t_, ptr %8, i32 0, i32 2
  %10 = load ptr, ptr %9, align 8, !tbaa !40
  call void @free(ptr noundef %10) #15
  %11 = load ptr, ptr %2, align 8, !tbaa !8
  %12 = getelementptr inbounds nuw %struct.Vec_Str_t_, ptr %11, i32 0, i32 2
  store ptr null, ptr %12, align 8, !tbaa !40
  br label %14

13:                                               ; preds = %1
  br label %14

14:                                               ; preds = %13, %7
  %15 = load ptr, ptr %2, align 8, !tbaa !8
  %16 = icmp ne ptr %15, null
  br i1 %16, label %17, label %19

17:                                               ; preds = %14
  %18 = load ptr, ptr %2, align 8, !tbaa !8
  call void @free(ptr noundef %18) #15
  store ptr null, ptr %2, align 8, !tbaa !8
  br label %20

19:                                               ; preds = %14
  br label %20

20:                                               ; preds = %19, %17
  ret void
}

; Function Attrs: nounwind uwtable
define i32 @Gia_ManSumCount(ptr noundef %0, ptr noundef %1, i32 noundef %2) #0 {
  %4 = alloca ptr, align 8
  %5 = alloca ptr, align 8
  %6 = alloca i32, align 4
  %7 = alloca i32, align 4
  %8 = alloca i32, align 4
  %9 = alloca i32, align 4
  %10 = alloca i32, align 4
  store ptr %0, ptr %4, align 8, !tbaa !48
  store ptr %1, ptr %5, align 8, !tbaa !73
  store i32 %2, ptr %6, align 4, !tbaa !10
  call void @llvm.lifetime.start.p0(i64 4, ptr %7) #15
  call void @llvm.lifetime.start.p0(i64 4, ptr %8) #15
  call void @llvm.lifetime.start.p0(i64 4, ptr %9) #15
  store i32 0, ptr %9, align 4, !tbaa !10
  call void @llvm.lifetime.start.p0(i64 4, ptr %10) #15
  store i32 0, ptr %10, align 4, !tbaa !10
  store i32 0, ptr %7, align 4, !tbaa !10
  br label %11

11:                                               ; preds = %65, %3
  %12 = load ptr, ptr %4, align 8, !tbaa !48
  %13 = load i32, ptr %7, align 4, !tbaa !10
  %14 = sext i32 %13 to i64
  %15 = getelementptr inbounds i8, ptr %12, i64 %14
  %16 = load i8, ptr %15, align 1, !tbaa !42
  %17 = icmp ne i8 %16, 0
  br i1 %17, label %18, label %68

18:                                               ; preds = %11
  %19 = load ptr, ptr %4, align 8, !tbaa !48
  %20 = load i32, ptr %7, align 4, !tbaa !10
  %21 = sext i32 %20 to i64
  %22 = getelementptr inbounds i8, ptr %19, i64 %21
  %23 = load i8, ptr %22, align 1, !tbaa !42
  %24 = sext i8 %23 to i32
  %25 = icmp sge i32 %24, 48
  br i1 %25, label %26, label %42

26:                                               ; preds = %18
  %27 = load ptr, ptr %4, align 8, !tbaa !48
  %28 = load i32, ptr %7, align 4, !tbaa !10
  %29 = sext i32 %28 to i64
  %30 = getelementptr inbounds i8, ptr %27, i64 %29
  %31 = load i8, ptr %30, align 1, !tbaa !42
  %32 = sext i8 %31 to i32
  %33 = icmp sle i32 %32, 57
  br i1 %33, label %34, label %42

34:                                               ; preds = %26
  %35 = load ptr, ptr %4, align 8, !tbaa !48
  %36 = load i32, ptr %7, align 4, !tbaa !10
  %37 = sext i32 %36 to i64
  %38 = getelementptr inbounds i8, ptr %35, i64 %37
  %39 = load i8, ptr %38, align 1, !tbaa !42
  %40 = sext i8 %39 to i32
  %41 = sub nsw i32 %40, 48
  br label %51

42:                                               ; preds = %26, %18
  %43 = load ptr, ptr %4, align 8, !tbaa !48
  %44 = load i32, ptr %7, align 4, !tbaa !10
  %45 = sext i32 %44 to i64
  %46 = getelementptr inbounds i8, ptr %43, i64 %45
  %47 = load i8, ptr %46, align 1, !tbaa !42
  %48 = sext i8 %47 to i32
  %49 = sub nsw i32 %48, 65
  %50 = add nsw i32 %49, 10
  br label %51

51:                                               ; preds = %42, %34
  %52 = phi i32 [ %41, %34 ], [ %50, %42 ]
  store i32 %52, ptr %8, align 4, !tbaa !10
  %53 = load ptr, ptr %5, align 8, !tbaa !73
  %54 = load i32, ptr %8, align 4, !tbaa !10
  %55 = call i32 @Vec_IntEntry(ptr noundef %53, i32 noundef %54)
  %56 = load i32, ptr %6, align 4, !tbaa !10
  %57 = load i32, ptr %8, align 4, !tbaa !10
  %58 = load i32, ptr %10, align 4, !tbaa !10
  %59 = add nsw i32 %58, %57
  store i32 %59, ptr %10, align 4, !tbaa !10
  %60 = shl i32 1, %59
  %61 = mul nsw i32 %56, %60
  %62 = add nsw i32 %55, %61
  %63 = load i32, ptr %9, align 4, !tbaa !10
  %64 = add nsw i32 %63, %62
  store i32 %64, ptr %9, align 4, !tbaa !10
  br label %65

65:                                               ; preds = %51
  %66 = load i32, ptr %7, align 4, !tbaa !10
  %67 = add nsw i32 %66, 1
  store i32 %67, ptr %7, align 4, !tbaa !10
  br label %11, !llvm.loop !119

68:                                               ; preds = %11
  %69 = load i32, ptr %9, align 4, !tbaa !10
  %70 = load i32, ptr %6, align 4, !tbaa !10
  %71 = load i32, ptr %10, align 4, !tbaa !10
  %72 = shl i32 1, %71
  %73 = sub nsw i32 %72, 1
  %74 = mul nsw i32 %70, %73
  %75 = add nsw i32 %69, %74
  call void @llvm.lifetime.end.p0(i64 4, ptr %10) #15
  call void @llvm.lifetime.end.p0(i64 4, ptr %9) #15
  call void @llvm.lifetime.end.p0(i64 4, ptr %8) #15
  call void @llvm.lifetime.end.p0(i64 4, ptr %7) #15
  ret i32 %75
}

; Function Attrs: inlinehint nounwind uwtable
define internal ptr @Vec_StrEntryP(ptr noundef %0, i32 noundef %1) #4 {
  %3 = alloca ptr, align 8
  %4 = alloca i32, align 4
  store ptr %0, ptr %3, align 8, !tbaa !8
  store i32 %1, ptr %4, align 4, !tbaa !10
  %5 = load ptr, ptr %3, align 8, !tbaa !8
  %6 = getelementptr inbounds nuw %struct.Vec_Str_t_, ptr %5, i32 0, i32 2
  %7 = load ptr, ptr %6, align 8, !tbaa !40
  %8 = load i32, ptr %4, align 4, !tbaa !10
  %9 = sext i32 %8 to i64
  %10 = getelementptr inbounds i8, ptr %7, i64 %9
  ret ptr %10
}

; Function Attrs: inlinehint nounwind uwtable
define internal i32 @Vec_StrSize(ptr noundef %0) #4 {
  %2 = alloca ptr, align 8
  store ptr %0, ptr %2, align 8, !tbaa !8
  %3 = load ptr, ptr %2, align 8, !tbaa !8
  %4 = getelementptr inbounds nuw %struct.Vec_Str_t_, ptr %3, i32 0, i32 1
  %5 = load i32, ptr %4, align 4, !tbaa !104
  ret i32 %5
}

; Function Attrs: nounwind uwtable
define void @Gia_ManSumEnum(i32 noundef %0, ptr noundef %1) #0 {
  %3 = alloca i32, align 4
  %4 = alloca ptr, align 8
  %5 = alloca ptr, align 8
  %6 = alloca i32, align 4
  %7 = alloca i32, align 4
  %8 = alloca i32, align 4
  %9 = alloca i32, align 4
  %10 = alloca i32, align 4
  %11 = alloca i32, align 4
  store i32 %0, ptr %3, align 4, !tbaa !10
  store ptr %1, ptr %4, align 8, !tbaa !73
  call void @llvm.lifetime.start.p0(i64 8, ptr %5) #15
  %12 = load i32, ptr %3, align 4, !tbaa !10
  %13 = call ptr @Gia_ManSumEnum_rec(i32 noundef %12)
  store ptr %13, ptr %5, align 8, !tbaa !8
  call void @llvm.lifetime.start.p0(i64 4, ptr %6) #15
  store i32 1, ptr %6, align 4, !tbaa !10
  br label %14

14:                                               ; preds = %52, %2
  %15 = load i32, ptr %6, align 4, !tbaa !10
  %16 = icmp sle i32 %15, 256
  br i1 %16, label %18, label %17

17:                                               ; preds = %14
  store i32 2, ptr %7, align 4
  call void @llvm.lifetime.end.p0(i64 4, ptr %6) #15
  br label %55

18:                                               ; preds = %14
  call void @llvm.lifetime.start.p0(i64 4, ptr %8) #15
  store i32 -1, ptr %8, align 4, !tbaa !10
  call void @llvm.lifetime.start.p0(i64 4, ptr %9) #15
  call void @llvm.lifetime.start.p0(i64 4, ptr %10) #15
  store i32 1000000000, ptr %10, align 4, !tbaa !10
  call void @llvm.lifetime.start.p0(i64 4, ptr %11) #15
  store i32 0, ptr %11, align 4, !tbaa !10
  br label %19

19:                                               ; preds = %39, %18
  %20 = load i32, ptr %11, align 4, !tbaa !10
  %21 = load ptr, ptr %5, align 8, !tbaa !8
  %22 = call i32 @Vec_StrSize(ptr noundef %21)
  %23 = icmp slt i32 %20, %22
  br i1 %23, label %25, label %24

24:                                               ; preds = %19
  store i32 5, ptr %7, align 4
  call void @llvm.lifetime.end.p0(i64 4, ptr %11) #15
  br label %49

25:                                               ; preds = %19
  %26 = load ptr, ptr %5, align 8, !tbaa !8
  %27 = load i32, ptr %11, align 4, !tbaa !10
  %28 = call ptr @Vec_StrEntryP(ptr noundef %26, i32 noundef %27)
  %29 = load ptr, ptr %4, align 8, !tbaa !73
  %30 = load i32, ptr %6, align 4, !tbaa !10
  %31 = call i32 @Gia_ManSumCount(ptr noundef %28, ptr noundef %29, i32 noundef %30)
  store i32 %31, ptr %9, align 4, !tbaa !10
  %32 = load i32, ptr %10, align 4, !tbaa !10
  %33 = load i32, ptr %9, align 4, !tbaa !10
  %34 = icmp sgt i32 %32, %33
  br i1 %34, label %35, label %38

35:                                               ; preds = %25
  %36 = load i32, ptr %9, align 4, !tbaa !10
  store i32 %36, ptr %10, align 4, !tbaa !10
  %37 = load i32, ptr %11, align 4, !tbaa !10
  store i32 %37, ptr %8, align 4, !tbaa !10
  br label %38

38:                                               ; preds = %35, %25
  br label %39

39:                                               ; preds = %38
  %40 = load ptr, ptr %5, align 8, !tbaa !8
  %41 = load i32, ptr %11, align 4, !tbaa !10
  %42 = call ptr @Vec_StrEntryP(ptr noundef %40, i32 noundef %41)
  %43 = call i64 @strlen(ptr noundef %42) #17
  %44 = add i64 %43, 1
  %45 = load i32, ptr %11, align 4, !tbaa !10
  %46 = sext i32 %45 to i64
  %47 = add i64 %46, %44
  %48 = trunc i64 %47 to i32
  store i32 %48, ptr %11, align 4, !tbaa !10
  br label %19, !llvm.loop !123

49:                                               ; preds = %24
  %50 = load i32, ptr %10, align 4, !tbaa !10
  %51 = call i32 (ptr, ...) @printf(ptr noundef @.str.61, i32 noundef %50)
  call void @llvm.lifetime.end.p0(i64 4, ptr %10) #15
  call void @llvm.lifetime.end.p0(i64 4, ptr %9) #15
  call void @llvm.lifetime.end.p0(i64 4, ptr %8) #15
  br label %52

52:                                               ; preds = %49
  %53 = load i32, ptr %6, align 4, !tbaa !10
  %54 = shl i32 %53, 1
  store i32 %54, ptr %6, align 4, !tbaa !10
  br label %14, !llvm.loop !124

55:                                               ; preds = %17
  %56 = load ptr, ptr %5, align 8, !tbaa !8
  call void @Vec_StrFree(ptr noundef %56)
  call void @llvm.lifetime.end.p0(i64 8, ptr %5) #15
  ret void
}