; Function Attrs: nounwind uwtable
define void @Gia_ManSumEnum(i32 noundef %0, ptr noundef readonly captures(none) %1) local_unnamed_addr #0 {
  %3 = tail call ptr @Gia_ManSumEnum_rec(i32 noundef %0)
  %4 = getelementptr i8, ptr %3, i64 4
  %.val = load i32, ptr %4, align 4, !tbaa !51
  %5 = icmp sgt i32 %.val, 0
  %6 = getelementptr i8, ptr %1, i64 8
  br i1 %5, label %.split.us, label %.preheader

.split.us:                                        ; preds = %2
  %7 = getelementptr i8, ptr %3, i64 8
  %.val21.us = load ptr, ptr %7, align 8, !tbaa !5
  br label %.preheader.us

.preheader.us:                                    ; preds = %._crit_edge.us, %.split.us
  %.01826.us = phi i32 [ 1, %.split.us ], [ %36, %._crit_edge.us ]
  br label %8

8:                                                ; preds = %.preheader.us, %Gia_ManSumCount.exit.us
  %.025.us = phi i32 [ 0, %.preheader.us ], [ %33, %Gia_ManSumCount.exit.us ]
  %.01724.us = phi i32 [ 1000000000, %.preheader.us ], [ %spec.select.us, %Gia_ManSumCount.exit.us ]
  %9 = sext i32 %.025.us to i64
  %10 = getelementptr inbounds i8, ptr %.val21.us, i64 %9
  %11 = load i8, ptr %10, align 1, !tbaa !12
  %.not23.i.us = icmp eq i8 %11, 0
  br i1 %.not23.i.us, label %Gia_ManSumCount.exit.us, label %.lr.ph.i.us

.lr.ph.i.us:                                      ; preds = %8
  %.val.i.us = load ptr, ptr %6, align 8, !tbaa !44
  br label %12

12:                                               ; preds = %12, %.lr.ph.i.us
  %indvars.iv.i.us = phi i64 [ 0, %.lr.ph.i.us ], [ %indvars.iv.next.i.us, %12 ]
  %13 = phi i8 [ %11, %.lr.ph.i.us ], [ %27, %12 ]
  %.026.i.us = phi i32 [ 0, %.lr.ph.i.us ], [ %22, %12 ]
  %.01925.i.us = phi i32 [ 0, %.lr.ph.i.us ], [ %25, %12 ]
  %14 = add i8 %13, -48
  %or.cond.i.us = icmp ult i8 %14, 10
  %15 = zext nneg i8 %14 to i32
  %16 = sext i8 %13 to i32
  %17 = add nsw i32 %16, -55
  %18 = select i1 %or.cond.i.us, i32 %15, i32 %17
  %19 = sext i32 %18 to i64
  %20 = getelementptr inbounds i32, ptr %.val.i.us, i64 %19
  %21 = load i32, ptr %20, align 4, !tbaa !19
  %22 = add nsw i32 %18, %.026.i.us
  %23 = shl i32 %.01826.us, %22
  %24 = add i32 %21, %.01925.i.us
  %25 = add i32 %24, %23
  %indvars.iv.next.i.us = add nuw nsw i64 %indvars.iv.i.us, 1
  %26 = getelementptr inbounds nuw i8, ptr %10, i64 %indvars.iv.next.i.us
  %27 = load i8, ptr %26, align 1, !tbaa !12
  %.not.i22.us = icmp eq i8 %27, 0
  br i1 %.not.i22.us, label %Gia_ManSumCount.exit.us, label %12, !llvm.loop !110

Gia_ManSumCount.exit.us:                          ; preds = %12, %8
  %.019.lcssa.i.us = phi i32 [ 0, %8 ], [ %25, %12 ]
  %.0.lcssa.i.us = phi i32 [ 0, %8 ], [ %22, %12 ]
  %mulshl.i.us = shl i32 %.01826.us, %.0.lcssa.i.us
  %28 = sub i32 %.019.lcssa.i.us, %.01826.us
  %29 = add i32 %28, %mulshl.i.us
  %spec.select.us = tail call i32 @llvm.smin.i32(i32 %.01724.us, i32 %29)
  %30 = tail call i64 @strlen(ptr noundef nonnull dereferenceable(1) %10) #25
  %31 = trunc i64 %30 to i32
  %32 = add i32 %.025.us, 1
  %33 = add i32 %32, %31
  %34 = icmp slt i32 %33, %.val
  br i1 %34, label %8, label %._crit_edge.us, !llvm.loop !114

._crit_edge.us:                                   ; preds = %Gia_ManSumCount.exit.us
  %35 = tail call i32 (ptr, ...) @printf(ptr noundef nonnull dereferenceable(1) @.str.61, i32 noundef %spec.select.us)
  %36 = shl i32 %.01826.us, 1
  %37 = icmp slt i32 %36, 257
  br i1 %37, label %.preheader.us, label %.split28.us.thread, !llvm.loop !115

.preheader:                                       ; preds = %2, %.preheader
  %.01826 = phi i32 [ %39, %.preheader ], [ 1, %2 ]
  %38 = tail call i32 (ptr, ...) @printf(ptr noundef nonnull dereferenceable(1) @.str.61, i32 noundef 1000000000)
  %39 = shl i32 %.01826, 1
  %40 = icmp slt i32 %39, 257
  br i1 %40, label %.preheader, label %.split28.us, !llvm.loop !115

.split28.us:                                      ; preds = %.preheader
  %.phi.trans.insert = getelementptr inbounds nuw i8, ptr %3, i64 8
  %.pre = load ptr, ptr %.phi.trans.insert, align 8, !tbaa !5
  %.not.i = icmp eq ptr %.pre, null
  br i1 %.not.i, label %Vec_StrFree.exit, label %.split28.us.thread

.split28.us.thread:                               ; preds = %._crit_edge.us, %.split28.us
  %41 = phi ptr [ %.pre, %.split28.us ], [ %.val21.us, %._crit_edge.us ]
  tail call void @free(ptr noundef nonnull %41) #21
  br label %Vec_StrFree.exit

Vec_StrFree.exit:                                 ; preds = %.split28.us, %.split28.us.thread
  tail call void @free(ptr noundef nonnull %3) #21
  ret void
}